(lp0
(S'487'
p1
I9737364
S'?'
p2
tp3
a(S'497'
p4
I9737364
g2
tp5
a(S'510'
p6
I9737364
g2
tp7
a(S'609'
p8
I9737364
g2
tp9
a(S'630'
p10
I9737364
g2
tp11
a(S'675'
p12
I9737364
g2
tp13
a(S'727'
p14
I9737364
g2
tp15
a(S'795'
p16
I9737364
g2
tp17
a(S'926'
p18
I9737364
g2
tp19
a(S'1198'
p20
I9737364
g2
tp21
a(S'1257'
p22
I10075690
g2
tp23
a(S'1262'
p24
I10075706
g2
tp25
a(S'1270'
p26
I10075706
g2
tp27
a(S'1288'
p28
I10066177
g2
tp29
a(S'1289'
p30
I10066177
g2
tp31
a(S'1293'
p32
I10066177
g2
tp33
a(S'1351'
p34
I10066177
g2
tp35
a(S'1353'
p36
I10066177
g2
tp37
a(S'1360'
p38
I10066178
g2
tp39
a(S'1361'
p40
I10066178
g2
tp41
a(S'1362'
p42
I10066178
g2
tp43
a(S'1410'
p44
I10066178
g2
tp45
a(S'1415'
p46
I10066178
g2
tp47
a(S'1844'
p48
I10066179
S'1.1--'
p49
tp50
a(S'1877'
p51
I10066179
S'1.1--'
p52
tp53
a(S'1886'
p54
I10066179
S'1.1--'
p55
tp56
a(S'1905'
p57
I10066179
S'1.1--'
p58
tp59
a(S'2040'
p60
I10066179
S'1.1.1'
p61
tp62
a(S'2052'
p63
I10066179
S'1.2--'
p64
tp65
a(S'2062'
p66
I10066179
S'1.2--'
p67
tp68
a(S'2098'
p69
I10066179
S'1.2--'
p70
tp71
a(S'2128'
p72
I10066179
S'1.2--'
p73
tp74
a(S'2198'
p75
I10066179
S'1.2-beta-2'
p76
tp77
a(S'2244'
p78
I10066179
S'1.2-beta-2'
p79
tp80
a(S'2270'
p81
I10066179
S'1.2-beta-2'
p82
tp83
a(S'2294'
p84
I10066179
S'1.2-beta-2'
p85
tp86
a(S'2349'
p87
I10066179
S'1.2-beta-3'
p88
tp89
a(S'2395'
p90
I10066179
S'1.2-beta-3'
p91
tp92
a(S'2724'
p93
I10066179
S'1.2'
p94
tp95
a(S'2749'
p96
I10066179
S'1.2'
p97
tp98
a(S'2812'
p99
I168640807
S'1.2'
p100
tp101
a(S'2844'
p102
I168636041
S'1.3b1'
p103
tp104
a(S'2865'
p105
I168636041
S'1.3b1'
p106
tp107
a(S'2868'
p108
I168636041
S'1.3b1'
p109
tp110
a(S'2891'
p111
I168636041
S'1.3b1'
p112
tp113
a(S'3139'
p114
I168636041
S'1.3b3'
p115
tp116
a(S'3409'
p117
I168636041
S'1.3'
p118
tp119
a(S'3492'
p120
I168636041
S'1.3'
p121
tp122
a(S'3557'
p123
I168636041
S'1.3'
p124
tp125
a(S'3590'
p126
I168636041
S'1.3'
p127
tp128
a(S'3683'
p129
I168636041
S'1.3'
p130
tp131
a(S'3696'
p132
I168636041
S'1.3'
p133
tp134
a(S'3738'
p135
I168636041
S'1.4b1'
p136
tp137
a(S'3768'
p138
I168626023
S'1.4b1'
p139
tp140
a(S'3839'
p141
I168630020
S'1.4b1'
p142
tp143
a(S'3964'
p144
I168630020
S'1.4b2'
p145
tp146
a(S'4111'
p147
I168630020
S'1.4b2'
p148
tp149
a(S'4503'
p150
I168630020
S'1.4'
p151
tp152
a(S'4596'
p153
I168630020
S'1.4'
p154
tp155
a(S'4993'
p156
I168644245
S'1.4'
p157
tp158
a(S'5043'
p159
I168644249
S'1.5a1'
p160
tp161
a(S'5180'
p162
I168644249
S'1.5a1'
p163
tp164
a(S'5317'
p165
I168644249
S'1.5a1'
p166
tp167
a(S'5373'
p168
I168644249
S'1.5a1'
p169
tp170
a(S'5375'
p171
I168644249
S'1.5a1'
p172
tp173
a(S'5438'
p174
I168644249
S'1.5a1'
p175
tp176
a(S'5511'
p177
I168644249
S'1.5a1'
p178
tp179
a(S'5758'
p180
I168644249
S'1.5a2'
p181
tp182
a(S'5894'
p183
I168644249
S'1.5a3'
p184
tp185
a(S'5926'
p186
I168644249
S'1.5a3'
p187
tp188
a(S'5938'
p189
I168644249
S'1.5a3'
p190
tp191
a(S'5980'
p192
I168644249
S'1.5a3'
p193
tp194
a(S'6028'
p195
I168644249
S'1.5a3'
p196
tp197
a(S'6055'
p198
I168644249
S'1.5a3'
p199
tp200
a(S'6243'
p201
I168644249
S'1.5a3'
p202
tp203
a(S'6249'
p204
I168644249
S'1.5a3'
p205
tp206
a(S'6250'
p207
I168644249
S'1.5a3'
p208
tp209
a(S'6252'
p210
I168644249
S'1.5a3'
p211
tp212
a(S'6256'
p213
I168644249
S'1.5a3'
p214
tp215
a(S'6285'
p216
I168644249
S'1.5a4'
p217
tp218
a(S'6299'
p219
I168644249
S'1.5a4'
p220
tp221
a(S'6304'
p222
I168644249
S'1.5a4'
p223
tp224
a(S'6305'
p225
I168644249
S'1.5a4'
p226
tp227
a(S'6375'
p228
I168644249
S'1.5a4'
p229
tp230
a(S'6454'
p231
I168644249
S'1.5a4'
p232
tp233
a(S'6541'
p234
I168644249
S'1.5a4'
p235
tp236
a(S'6542'
p237
I168644249
S'1.5a4'
p238
tp239
a(S'6762'
p240
I168644249
S'1.5b1'
p241
tp242
a(S'6907'
p243
I168644249
S'1.5b2'
p244
tp245
a(S'7111'
p246
I168644249
S'1.5'
p247
tp248
a(S'7202'
p249
I168644249
S'1.5'
p250
tp251
a(S'7232'
p252
I168644249
S'1.5'
p253
tp254
a(S'7290'
p255
I168644249
S'1.5'
p256
tp257
a(S'7305'
p258
I168644249
S'1.5'
p259
tp260
a(S'7367'
p261
I168644249
S'1.5'
p262
tp263
a(S'7403'
p264
I168644249
S'1.5'
p265
tp266
a(S'7533'
p267
I168644249
S'1.5'
p268
tp269
a(S'7535'
p270
I168644249
S'1.5'
p271
tp272
a(S'7552'
p273
I168644249
S'1.5'
p274
tp275
a(S'7979'
p276
I168644249
S'1.5.1'
p277
tp278
a(S'7987'
p279
I168644249
S'1.5.1'
p280
tp281
a(S'8012'
p282
I168644249
S'1.5.1'
p283
tp284
a(S'8330'
p285
I168644249
S'1.5.1'
p286
tp287
a(S'8374'
p288
I168644249
S'1.5.1'
p289
tp290
a(S'8544'
p291
I168644249
S'1.5.1'
p292
tp293
a(S'8613'
p294
I168644249
S'1.5.1'
p295
tp296
a(S'8822'
p297
I168644249
S'1.5.1'
p298
tp299
a(S'8845'
p300
I168644249
S'1.5.2a1'
p301
tp302
a(S'8934'
p303
I168644249
S'1.5.2a1'
p304
tp305
a(S'9050'
p306
I168644249
S'1.5.2a1'
p307
tp308
a(S'9096'
p309
I168644249
S'1.5.2a1'
p310
tp311
a(S'9187'
p312
I168644249
S'1.5.2a1'
p313
tp314
a(S'9203'
p315
I168644249
S'1.5.2a1'
p316
tp317
a(S'9329'
p318
I168644249
S'1.5.2a2'
p319
tp320
a(S'9431'
p321
I168644249
S'1.5.2a2'
p322
tp323
a(S'9679'
p324
I168644249
S'1.5.2b1'
p325
tp326
a(S'9680'
p327
I168644249
S'1.5.2b1'
p328
tp329
a(S'9971'
p330
I168644249
S'1.5.2b2'
p331
tp332
a(S'10530'
p333
I168644249
S'1.5.2b2+'
p334
tp335
a(S'11602'
p336
I168644249
S'1.5.2+'
p337
tp338
a(S'11618'
p339
I168644249
S'1.5.2+'
p340
tp341
a(S'11882'
p342
I168644249
S'1.5.2+'
p343
tp344
a(S'12476'
p345
I168644249
S'1.6a2'
p346
tp347
a(S'12531'
p348
I168674556
S'1.6a2'
p349
tp350
a(S'12536'
p351
I168674556
S'1.6a2'
p352
tp353
a(S'12543'
p354
I168674556
S'1.6a2'
p355
tp356
a(S'12576'
p357
I168674556
S'1.6a2'
p358
tp359
a(S'13181'
p360
I168674556
S'2.0b1'
p361
tp362
a(S'13226'
p363
I168674556
S'2.0b1'
p364
tp365
a(S'13255'
p366
I168674556
S'2.0b1'
p367
tp368
a(S'13256'
p369
I168674556
S'2.0b1'
p370
tp371
a(S'13266'
p372
I168674556
S'2.0b1'
p373
tp374
a(S'13447'
p375
I168674556
S'2.0b1'
p376
tp377
a(S'13552'
p378
I168674556
S'2.0b1'
p379
tp380
a(S'13658'
p381
I168674843
S'2.0b1'
p382
tp383
a(S'13663'
p384
I168674843
S'2.0b1'
p385
tp386
a(S'13670'
p387
I168674556
S'2.0b1'
p388
tp389
a(S'13930'
p390
I168674939
S'2.0b1'
p391
tp392
a(S'14038'
p393
I168674943
S'2.0b1'
p394
tp395
a(S'14103'
p396
I168674949
S'2.0b1'
p397
tp398
a(S'14163'
p399
I168674950
S'2.0b1'
p400
tp401
a(S'14232'
p402
I168674951
S'2.0b1'
p403
tp404
a(S'14375'
p405
I168674951
S'2.0b1'
p406
tp407
a(S'14708'
p408
I168674951
S'2.0b1'
p409
tp410
a(S'14921'
p411
I168674951
S'2.0b2'
p412
tp413
a(S'14991'
p414
I168674951
S'2.0b2'
p415
tp416
a(S'15401'
p417
I168674951
S'2.0'
p418
tp419
a(S'15802'
p420
I168674951
S'2.0'
p421
tp422
a(S'15978'
p423
I168674951
S'2.1a1'
p424
tp425
a(S'16257'
p426
I168684252
S'2.1a1'
p427
tp428
a(S'16311'
p429
I168684252
S'2.1a1'
p430
tp431
a(S'16423'
p432
I168684252
S'2.1a1'
p433
tp434
a(S'16433'
p435
I168684330
S'2.1a2'
p436
tp437
a(S'16534'
p438
I168684330
S'2.1a2'
p439
tp440
a(S'16712'
p441
I168684330
S'2.1a2'
p442
tp443
a(S'16828'
p444
I168684330
S'2.1a2'
p445
tp446
a(S'16829'
p447
I168684330
S'2.1a2'
p448
tp449
a(S'16830'
p450
I168684330
S'2.1a2'
p451
tp452
a(S'16880'
p453
I168684330
S'2.1a2'
p454
tp455
a(S'16881'
p456
I168684330
S'2.1a2'
p457
tp458
a(S'16893'
p459
I168684330
S'2.1a2'
p460
tp461
a(S'16896'
p462
I168684330
S'2.1a2'
p463
tp464
a(S'16902'
p465
I168684330
S'2.1b1'
p466
tp467
a(S'16932'
p468
I168684330
S'2.1b1'
p469
tp470
a(S'16947'
p471
I168684330
S'2.1b1'
p472
tp473
a(S'16986'
p474
I168684330
S'2.1b1'
p475
tp476
a(S'17090'
p477
I168684330
S'2.1b2'
p478
tp479
a(S'17264'
p480
I168674951
S'2.0'
p481
tp482
a(S'17502'
p483
I168684330
S'2.1c1'
p484
tp485
a(S'17597'
p486
I168684548
S'2.2a0'
p487
tp488
a(S'17642'
p489
I168684548
S'2.2a0'
p490
tp491
a(S'17945'
p492
I168684330
S'2.1.1a1'
p493
tp494
a(S'18388'
p495
I168684548
S'2.2a0'
p496
tp497
a(S'18470'
p498
I168684330
S'2.1.1c1'
p499
tp500
a(S'18803'
p501
I168684548
S'2.2a0'
p502
tp503
a(S'18808'
p504
I168684548
S'2.2a0'
p505
tp506
a(S'18933'
p507
I168684845
S'2.2a1'
p508
tp509
a(S'18992'
p510
I168684845
S'2.2a1'
p511
tp512
a(S'19061'
p513
I168684845
S'2.2a1'
p514
tp515
a(S'19063'
p516
I168684845
S'2.2a1'
p517
tp518
a(S'19238'
p519
I168684845
S'2.2a1'
p520
tp521
a(S'19596'
p522
I168684845
S'2.2a2+'
p523
tp524
a(S'20249'
p525
I168684845
S'2.2a4+'
p526
tp527
a(S'20527'
p528
I168684845
S'2.2a4+'
p529
tp530
a(S'20654'
p531
I168684845
S'2.2b1+'
p532
tp533
a(S'20671'
p534
I168684845
S'2.2b1+'
p535
tp536
a(S'20768'
p537
I168684845
S'2.2b1+'
p538
tp539
a(S'21010'
p540
I168684845
S'2.2b2+'
p541
tp542
a(S'21712'
p543
I168684845
S'2.2+'
p544
tp545
a(S'21886'
p546
I168686129
S'2.3a0'
p547
tp548
a(S'22054'
p549
I168686129
S'2.3a0'
p550
tp551
a(S'22651'
p552
I168686129
S'2.3a0'
p553
tp554
a(S'22705'
p555
I168686129
S'2.3a0'
p556
tp557
a(S'22866'
p558
I168686129
S'2.3a0'
p559
tp560
a(S'22918'
p561
I168686129
S'2.3a0'
p562
tp563
a(S'22957'
p564
I168686129
S'2.3a0'
p565
tp566
a(S'23029'
p567
I168686129
S'2.3a0'
p568
tp569
a(S'23554'
p570
I168686129
S'2.3a0'
p571
tp572
a(S'23585'
p573
I168686129
S'2.3a0'
p574
tp575
a(S'23586'
p576
I168686129
S'2.3a0'
p577
tp578
a(S'23623'
p579
I168684845
S'2.2.1'
p580
tp581
a(S'23624'
p582
I168684330
S'2.1.3'
p583
tp584
a(S'23832'
p585
I168686129
S'2.3a0'
p586
tp587
a(S'23851'
p588
I168686139
S'2.3a0'
p589
tp590
a(S'23879'
p591
I168686139
S'2.3a0'
p592
tp593
a(S'24071'
p594
I168686139
S'2.3a0'
p595
tp596
a(S'24844'
p597
I168686149
S'2.3a0'
p598
tp599
a(S'25085'
p600
I168686139
S'2.3a0'
p601
tp602
a(S'26461'
p603
I168686139
S'2.3a0'
p604
tp605
a(S'26550'
p606
I168686139
S'2.3a0'
p607
tp608
a(S'26643'
p609
I168686139
S'2.3a0'
p610
tp611
a(S'26796'
p612
I168686139
S'2.3a0'
p613
tp614
a(S'26885'
p615
I168686139
S'2.3a0'
p616
tp617
a(S'27357'
p618
I168686139
S'2.3a1'
p619
tp620
a(S'27852'
p621
I168686139
S'2.3a1'
p622
tp623
a(S'27853'
p624
I168686139
S'2.3a1'
p625
tp626
a(S'27867'
p627
I168684845
S'2.2.2'
p628
tp629
a(S'27917'
p630
I168686139
S'2.3a1'
p631
tp632
a(S'28392'
p633
I168686139
S'2.3a2+'
p634
tp635
a(S'28394'
p636
I168684845
S'2.2.2'
p637
tp638
a(S'29501'
p639
I168686139
S'2.3b1+'
p640
tp641
a(S'29812'
p642
I168686139
S'2.3b2+'
p643
tp644
a(S'30311'
p645
I168686139
S'2.4a0'
p646
tp647
a(S'30722'
p648
I168686139
S'2.4a0'
p649
tp650
a(S'30723'
p651
I168686139
S'2.3.2+'
p652
tp653
a(S'30979'
p654
I168686139
S'2.4a0'
p655
tp656
a(S'31320'
p657
I168686139
S'2.4a0'
p658
tp659
a(S'31778'
p660
I168686139
S'2.4a0'
p661
tp662
a(S'31779'
p663
I168686139
S'2.3.3'
p664
tp665
a(S'31797'
p666
I168686139
S'2.4a0'
p667
tp668
a(S'31824'
p669
I168686139
S'2.4a0'
p670
tp671
a(S'31851'
p672
I168686159
S'2.4a0'
p673
tp674
a(S'32156'
p675
I168686159
S'2.4a0'
p676
tp677
a(S'32293'
p678
I168686139
S'2.3.4'
p679
tp680
a(S'32294'
p681
I168686159
S'2.4a0'
p682
tp683
a(S'32422'
p684
I168686169
S'2.4a0'
p685
tp686
a(S'32878'
p687
I168686169
S'2.4a1+'
p688
tp689
a(S'32879'
p690
I168686169
S'2.4a1+'
p691
tp692
a(S'32882'
p693
I168686169
S'2.4a1+'
p694
tp695
a(S'33248'
p696
I168686179
S'2.4a2'
p697
tp698
a(S'33539'
p699
I168686189
S'2.4a3'
p700
tp701
a(S'33542'
p702
I168686189
S'2.4a3'
p703
tp704
a(S'33543'
p705
I168686139
S'2.3.5a0'
p706
tp707
a(S'33680'
p708
I168686189
S'2.4a3'
p709
tp710
a(S'34961'
p711
I168686189
S'2.5a0'
p712
tp713
a(S'35008'
p714
I168686199
S'2.5a0'
p715
tp716
a(S'35542'
p717
I168686199
S'2.5a0'
p718
tp719
a(S'35543'
p720
I168686189
S'2.4.1+'
p721
tp722
a(S'35550'
p723
I168686199
S'2.5a0'
p724
tp725
a(S'35551'
p726
I168686189
S'2.4.1+'
p727
tp728
a(S'35678'
p729
I168686199
S'2.5a0'
p730
tp731
a(S'35679'
p732
I168686189
S'2.4.2'
p733
tp734
a(S'35742'
p735
I168686199
S'2.5a0'
p736
tp737
a(S'35757'
p738
I168686209
S'2.5a0'
p739
tp740
a(S'35999'
p741
I168686209
S'2.5a0'
p742
tp743
a(S'36065'
p744
I168686209
S'2.5a0'
p745
tp746
a(S'36324'
p747
I168686209
S'2.5a0'
p748
tp749
a(S'36501'
p750
I168686209
S'2.5a0'
p751
tp752
a(S'36695'
p753
I168686219
S'2.5a0'
p754
tp755
a(S'36712'
p756
I168686220
S'2.5a0'
p757
tp758
a(S'36866'
p759
I168686220
S'2.5a0'
p760
tp761
a(S'36926'
p762
I168686220
S'2.5a0'
p763
tp764
a(S'36988'
p765
I168627128
S'3.0x'
p766
tp767
a(S'37086'
p768
I168686220
S'2.5a0'
p769
tp770
a(S'37209'
p771
I168686220
S'2.5a0'
p772
tp773
a(S'37473'
p774
I168686220
S'2.5a1'
p775
tp776
a(S'37488'
p777
I168686220
S'2.5a1'
p778
tp779
a(S'37655'
p780
I168686220
S'2.5a1'
p781
tp782
a(S'37879'
p783
I168627128
S'3.0x'
p784
tp785
a(S'38018'
p786
I168686220
S'2.5a2'
p787
tp788
a(S'38314'
p789
I168686220
S'2.5a2'
p790
tp791
a(S'38388'
p792
I168686220
S'2.5a2'
p793
tp794
a(S'38453'
p795
I168627128
S'3.0x'
p796
tp797
a(S'38465'
p798
I168686220
S'2.5a2'
p799
tp800
a(S'38471'
p801
I168686220
S'2.5a2'
p802
tp803
a(S'38669'
p804
I168627128
S'3.0x'
p805
tp806
a(S'39008'
p807
I168686220
S'2.5b1'
p808
tp809
a(S'39067'
p810
I168686220
S'2.5b2'
p811
tp812
a(S'39070'
p813
I168686229
S'2.5b2'
p814
tp815
a(S'39099'
p816
I168686229
S'2.5b2'
p817
tp818
a(S'39129'
p819
I168686229
S'2.5b2'
p820
tp821
a(S'39130'
p822
I168686229
S'2.5b2'
p823
tp824
a(S'39253'
p825
I168686229
S'2.5b2'
p826
tp827
a(S'39300'
p828
I168686239
S'2.5b2'
p829
tp830
a(S'39363'
p831
I168686249
S'2.5b3'
p832
tp833
a(S'39365'
p834
I168686249
S'2.5b3'
p835
tp836
a(S'39442'
p837
I168627128
S'3.0x'
p838
tp839
a(S'39468'
p840
I168686249
S'2.5b3'
p841
tp842
a(S'39610'
p843
I168627128
S'3.0x'
p844
tp845
a(S'39678'
p846
I168627138
S'3.0x'
p847
tp848
a(S'39693'
p849
I168627148
S'3.0x'
p850
tp851
a(S'39753'
p852
I168686259
S'2.6a0'
p853
tp854
a(S'39777'
p855
I168686259
S'2.6a0'
p856
tp857
a(S'39827'
p858
I168686259
S'2.6a0'
p859
tp860
a(S'39893'
p861
I168686189
S'2.4.4c0'
p862
tp863
a(S'39901'
p864
I168686259
S'2.6a0'
p865
tp866
a(S'39962'
p867
I168686189
S'2.4.4c0'
p868
tp869
a(S'39978'
p870
I168686259
S'2.6a0'
p871
tp872
a(S'40007'
p873
I168686189
S'2.4.4c0'
p874
tp875
a(S'40012'
p876
I168686189
S'2.4.4c0'
p877
tp878
a(S'40116'
p879
I168686269
S'2.6a0'
p880
tp881
a(S'40215'
p882
I168627158
S'3.0x'
p883
tp884
a(S'40450'
p885
I168627158
S'3.0x'
p886
tp887
a(S'40530'
p888
I168627168
S'3.0x'
p889
tp890
a(S'40774'
p891
I168627178
S'3.0x'
p892
tp893
a(S'41102'
p894
I168686269
S'2.6a0'
p895
tp896
a(S'41128'
p897
I168686269
S'2.6a0'
p898
tp899
a(S'41131'
p900
I168686259
S'2.5'
p901
tp902
a(S'41139'
p903
I168686269
S'2.6a0'
p904
tp905
a(S'41178'
p906
I168686269
S'2.6a0'
p907
tp908
a(S'41179'
p909
I168686259
S'2.5'
p910
tp911
a(S'41226'
p912
I168627188
S'3.0x'
p913
tp914
a(S'41253'
p915
I168627188
S'3.0x'
p916
tp917
a(S'41526'
p918
I168686269
S'2.6a0'
p919
tp920
a(S'41554'
p921
I168627188
S'3.0x'
p922
tp923
a(S'41558'
p924
I168627188
S'3.0x'
p925
tp926
a(S'41573'
p927
I168686259
S'2.5.1'
p928
tp929
a(S'41587'
p930
I168627188
S'3.0x'
p931
tp932
a(S'41595'
p933
I168627188
S'3.0x'
p934
tp935
a(S'41666'
p936
I168627188
S'3.0x'
p937
tp938
a(S'41911'
p939
I168686269
S'2.6a0'
p940
tp941
a(S'41969'
p942
I168627188
S'3.0x'
p943
tp944
a(S'42013'
p945
I168627188
S'3.0x'
p946
tp947
a(S'42057'
p948
I168627188
S'3.0x'
p949
tp950
a(S'42071'
p951
I168627188
S'3.0x'
p952
tp953
a(S'42333'
p954
I168686269
S'2.6a0'
p955
tp956
a(S'42334'
p957
I168627188
S'3.0x'
p958
tp959
a(S'42347'
p960
I168627188
S'3.0x'
p961
tp962
a(S'42428'
p963
I168627188
S'3.0x'
p964
tp965
a(S'42560'
p966
I168627188
S'3.0x'
p967
tp968
a(S'42622'
p969
I168627188
S'3.0x'
p970
tp971
a(S'42687'
p972
I168686269
S'2.6a0'
p973
tp974
a(S'42688'
p975
I168686269
S'2.6a0'
p976
tp977
a(S'42734'
p978
I168686269
S'2.6a0'
p979
tp980
a(S'42736'
p981
I168686259
S'2.5.1'
p982
tp983
a(S'42775'
p984
I168627188
S'3.0x'
p985
tp986
a(S'42859'
p987
I168627188
S'3.0x'
p988
tp989
a(S'42862'
p990
I168627188
S'3.0x'
p991
tp992
a(S'42898'
p993
I168627188
S'3.0x'
p994
tp995
a(S'43102'
p996
I168627188
S'3.0a1'
p997
tp998
a(S'43107'
p999
I168627198
S'3.0a1'
p1000
tp1001
a(S'43225'
p1002
I168627198
S'3.0a1'
p1003
tp1004
a(S'43569'
p1005
I168627208
S'3.0a1'
p1006
tp1007
a(S'43605'
p1008
I168627208
S'3.0a1'
p1009
tp1010
a(S'43608'
p1011
I168627208
S'3.0a1+'
p1012
tp1013
a(S'43632'
p1014
I168627208
S'3.0a1+'
p1015
tp1016
a(S'43712'
p1017
I168627208
S'3.0a1+'
p1018
tp1019
a(S'43762'
p1020
I168627208
S'3.0a1+'
p1021
tp1022
a(S'43777'
p1023
I168627218
S'3.0a1+'
p1024
tp1025
a(S'43789'
p1026
I168627218
S'3.0a1+'
p1027
tp1028
a(S'43790'
p1029
I168627218
S'3.0a1+'
p1030
tp1031
a(S'43791'
p1032
I168686269
S'2.6a0'
p1033
tp1034
a(S'43792'
p1035
I168686269
S'2.6a0'
p1036
tp1037
a(S'43895'
p1038
I168686269
S'2.6a0'
p1039
tp1040
a(S'43897'
p1041
I168627218
S'3.0a1+'
p1042
tp1043
a(S'44098'
p1044
I168627218
S'3.0a1+'
p1045
tp1046
a(S'44099'
p1047
I168627218
S'3.0a1+'
p1048
tp1049
a(S'44116'
p1050
I168686269
S'2.6a0'
p1051
tp1052
a(S'44134'
p1053
I168627218
S'3.0a1+'
p1054
tp1055
a(S'44142'
p1056
I168627218
S'3.0a1+'
p1057
tp1058
a(S'44334'
p1059
I168686279
S'2.6a0'
p1060
tp1061
a(S'44349'
p1062
I168627228
S'3.0a2'
p1063
tp1064
a(S'44439'
p1065
I168686279
S'2.6a0'
p1066
tp1067
a(S'44441'
p1068
I168627228
S'3.0a2+'
p1069
tp1070
a(S'44566'
p1071
I168686279
S'2.6a0'
p1072
tp1073
a(S'44567'
p1074
I168627228
S'3.0a2+'
p1075
tp1076
a(S'44569'
p1077
I168686279
S'2.6a0'
p1078
tp1079
a(S'44583'
p1080
I168627230
S'3.0a2+'
p1081
tp1082
a(S'44587'
p1083
I168627230
S'3.0a2+'
p1084
tp1085
a(S'44614'
p1086
I168686279
S'2.6a0'
p1087
tp1088
a(S'44617'
p1089
I168627230
S'3.0a2+'
p1090
tp1091
a(S'44634'
p1092
I168627230
S'3.0a2+'
p1093
tp1094
a(S'45059'
p1095
I168686279
S'2.6a0'
p1096
tp1097
a(S'45071'
p1098
I168627230
S'3.0a2+'
p1099
tp1100
a(S'45470'
p1101
I168686279
S'2.6a0'
p1102
tp1103
a(S'45471'
p1104
I168627230
S'3.0a2+'
p1105
tp1106
a(S'45492'
p1107
I168686279
S'2.6a0'
p1108
tp1109
a(S'45495'
p1110
I168627230
S'3.0a2+'
p1111
tp1112
a(S'45703'
p1113
I168686289
S'2.6a1+'
p1114
tp1115
a(S'45773'
p1116
I168627238
S'3.0a3+'
p1117
tp1118
a(S'46015'
p1119
I168627238
S'3.0a3+'
p1120
tp1121
a(S'46118'
p1122
I168686289
S'2.6a1+'
p1123
tp1124
a(S'46120'
p1125
I168627238
S'3.0a3+'
p1126
tp1127
a(S'46121'
p1128
I168686289
S'2.6a1+'
p1129
tp1130
a(S'46125'
p1131
I168627238
S'3.0a3+'
p1132
tp1133
a(S'46136'
p1134
I168686289
S'2.6a1+'
p1135
tp1136
a(S'46138'
p1137
I168686289
S'2.6a1+'
p1138
tp1139
a(S'46547'
p1140
I168627238
S'3.0a4+'
p1141
tp1142
a(S'46644'
p1143
I168627238
S'3.0a4+'
p1144
tp1145
a(S'47294'
p1146
I168686289
S'2.6a3+'
p1147
tp1148
a(S'47301'
p1149
I168627238
S'3.0a5+'
p1150
tp1151
a(S'47527'
p1152
I168686289
S'2.6a3+'
p1153
tp1154
a(S'47580'
p1155
I168627238
S'3.0a5+'
p1156
tp1157
a(S'47594'
p1158
I168627258
S'3.0a5+'
p1159
tp1160
a(S'47599'
p1161
I168627258
S'3.0a5+'
p1162
tp1163
a(S'47944'
p1164
I168686289
S'2.6b1+'
p1165
tp1166
a(S'48189'
p1167
I168686289
S'2.6b2+'
p1168
tp1169
a(S'48499'
p1170
I168627258
S'3.0b1+'
p1171
tp1172
a(S'48540'
p1173
I168627258
S'3.0b2+'
p1174
tp1175
a(S'48660'
p1176
I168627258
S'3.0b2+'
p1177
tp1178
a(S'48920'
p1179
I168686289
S'2.6b3+'
p1180
tp1181
a(S'48946'
p1182
I168627258
S'3.0b3+'
p1183
tp1184
a(S'49003'
p1185
I168627258
S'3.0b3+'
p1186
tp1187
a(S'49020'
p1188
I168627258
S'3.0b3+'
p1189
tp1190
a(S'49103'
p1191
I168627258
S'3.0b3+'
p1192
tp1193
a(S'49105'
p1194
I168627258
S'3.0b3+'
p1195
tp1196
a(S'49651'
p1197
I168627258
S'3.0rc1+'
p1198
tp1199
a(S'49708'
p1200
I168627258
S'3.0rc2+'
p1201
tp1202
a(S'50204'
p1203
I168686299
S'2.7a0'
p1204
tp1205
a(S'50211'
p1206
I168627268
S'3.1a0'
p1207
tp1208
a(S'50491'
p1209
I168686299
S'2.7a0'
p1210
tp1211
a(S'50492'
p1212
I168627268
S'3.1a0'
p1213
tp1214
a(S'50616'
p1215
I168686299
S'2.7a0'
p1216
tp1217
a(S'50618'
p1218
I168686289
S'2.6.1+'
p1219
tp1220
a(S'50619'
p1221
I168627268
S'3.1a0'
p1222
tp1223
a(S'50620'
p1224
I168627258
S'3.0+'
p1225
tp1226
a(S'50671'
p1227
I168686299
S'2.7a0'
p1228
tp1229
a(S'50786'
p1230
I168686289
S'2.6.1+'
p1231
tp1232
a(S'50991'
p1233
I168627268
S'3.1a0'
p1234
tp1235
a(S'50996'
p1236
I168627268
S'3.1a0'
p1237
tp1238
a(S'51192'
p1239
I168627268
S'3.1a0'
p1240
tp1241
a(S'51197'
p1242
I168627258
S'3.0+'
p1243
tp1244
a(S'51270'
p1245
I168627268
S'3.1a0'
p1246
tp1247
a(S'51271'
p1248
I168627258
S'3.0+'
p1249
tp1250
a(S'51853'
p1251
I168627278
S'3.1a0'
p1252
tp1253
a(S'51920'
p1254
I168686309
S'2.7a0'
p1255
tp1256
a(S'51996'
p1257
I168627278
S'3.1a0'
p1258
tp1259
a(S'51997'
p1260
I168627258
S'3.0.1+'
p1261
tp1262
a(S'52073'
p1263
I168627278
S'3.1a1+'
p1264
tp1265
a(S'52168'
p1266
I168627278
S'3.1a1+'
p1267
tp1268
a(S'52475'
p1269
I168627258
S'3.0.1+'
p1270
tp1271
a(S'52480'
p1272
I168627278
S'3.1a1+'
p1273
tp1274
a(S'52545'
p1275
I168627278
S'3.1a1+'
p1276
tp1277
a(S'52547'
p1278
I168627278
S'3.1a1+'
p1279
tp1280
a(S'52718'
p1281
I168686309
S'2.7a0'
p1282
tp1283
a(S'52720'
p1284
I168686309
S'2.7a0'
p1285
tp1286
a(S'52721'
p1287
I168627278
S'3.1a1+'
p1288
tp1289
a(S'54329'
p1290
I168686319
S'2.7a0'
p1291
tp1292
a(S'54889'
p1293
I168627288
S'3.2a0'
p1294
tp1295
a(S'55132'
p1296
I168686319
S'2.7a0'
p1297
tp1298
a(S'55141'
p1299
I168686319
S'2.7a0'
p1300
tp1301
a(S'55304'
p1302
I168627288
S'3.2a0'
p1303
tp1304
a(S'55330'
p1305
I168686289
S'2.6.2+'
p1306
tp1307
a(S'55331'
p1308
I168627278
S'3.1.1a0'
p1309
tp1310
a(S'55441'
p1311
I168686319
S'2.7a0'
p1312
tp1313
a(S'55504'
p1314
I168627288
S'3.2a0'
p1315
tp1316
a(S'55584'
p1317
I168627278
S'3.1.0+'
p1318
tp1319
a(S'56007'
p1320
I168686319
S'2.7a0'
p1321
tp1322
a(S'56008'
p1323
I168686289
S'2.6.2+'
p1324
tp1325
a(S'56381'
p1326
I168627288
S'3.2a0'
p1327
tp1328
a(S'56382'
p1329
I168627278
S'3.1.1'
p1330
tp1331
a(S'57629'
p1332
I168627288
S'3.2a0'
p1333
tp1334
a(S'58229'
p1335
I168686329
S'2.7a2+'
p1336
tp1337
a(S'58250'
p1338
I168686339
S'2.7a2+'
p1339
tp1340
a(S'59210'
p1341
I168686339
S'2.7a3+'
p1342
tp1343
a(S'59213'
p1344
I168627288
S'3.2a0'
p1345
tp1346
a(S'59226'
p1347
I168686289
S'2.6.4+'
p1348
tp1349
a(S'59235'
p1350
I168627288
S'3.2a0'
p1351
tp1352
a(S'59499'
p1353
I168686339
S'2.7a4+'
p1354
tp1355
a(S'59536'
p1356
I168627288
S'3.2a0'
p1357
tp1358
a(S'59538'
p1359
I168627288
S'3.2a0'
p1360
tp1361
a(S'59822'
p1362
I168686289
S'2.6.5+'
p1363
tp1364
a(S'59858'
p1365
I168627278
S'3.1.2'
p1366
tp1367
a(S'59865'
p1368
I168627278
S'3.1.2'
p1369
tp1370
a(S'60021'
p1371
I168686339
S'2.7a4+'
p1372
tp1373
a(S'60022'
p1374
I168627288
S'3.2a0'
p1375
tp1376
a(S'60648'
p1377
I168627288
S'3.2a0'
p1378
tp1379
a(S'61267'
p1380
I168686339
S'2.7b1+'
p1381
tp1382
a(S'61268'
p1383
I168686339
S'2.7b1+'
p1384
tp1385
a(S'61269'
p1386
I168686339
S'2.7b1+'
p1387
tp1388
a(S'61463'
p1389
I168686339
S'2.7b2+'
p1390
tp1391
a(S'61465'
p1392
I168686289
S'2.6.5+'
p1393
tp1394
a(S'61466'
p1395
I168627288
S'3.2a0'
p1396
tp1397
a(S'61467'
p1398
I168627278
S'3.1.2'
p1399
tp1400
a(S'61597'
p1401
I168627288
S'3.2a0'
p1402
tp1403
a(S'61773'
p1404
I168686339
S'2.7b2+'
p1405
tp1406
a(S'61774'
p1407
I168686289
S'2.6.5+'
p1408
tp1409
a(S'62385'
p1410
I168627288
S'3.2a0'
p1411
tp1412
a(S'62570'
p1413
I168627288
S'3.2a0'
p1414
tp1415
a(S'63857'
p1416
I168627288
S'3.2a1+'
p1417
tp1418
a(S'63945'
p1419
I168627288
S'3.2a1+'
p1420
tp1421
a(S'63985'
p1422
I168627288
S'3.2a1+'
p1423
tp1424
a(S'63999'
p1425
I168627288
S'3.2a1+'
p1426
tp1427
a(S'64003'
p1428
I168627288
S'3.2a1+'
p1429
tp1430
a(S'64085'
p1431
I168627278
S'3.1.2'
p1432
tp1433
a(S'64135'
p1434
I168627288
S'3.2a1+'
p1435
tp1436
a(S'64439'
p1437
I168627298
S'3.2a1+'
p1438
tp1439
a(S'64594'
p1440
I168627298
S'3.2a2+'
p1441
tp1442
a(S'64621'
p1443
I168627308
S'3.2a2+'
p1444
tp1445
a(S'64638'
p1446
I168627308
S'3.2a2+'
p1447
tp1448
a(S'64838'
p1449
I168627308
S'3.2a2+'
p1450
tp1451
a(S'65008'
p1452
I168627308
S'3.2a2+'
p1453
tp1454
a(S'65027'
p1455
I168627308
S'3.2a2+'
p1456
tp1457
a(S'65157'
p1458
I168627308
S'3.2a2+'
p1459
tp1460
a(S'65162'
p1461
I168627308
S'3.2a2+'
p1462
tp1463
a(S'65349'
p1464
I168627308
S'3.2a3+'
p1465
tp1466
a(S'65380'
p1467
I168627308
S'3.2a3+'
p1468
tp1469
a(S'65382'
p1470
I168627308
S'3.2a3+'
p1471
tp1472
a(S'65383'
p1473
I168627308
S'3.2a3+'
p1474
tp1475
a(S'65391'
p1476
I168627308
S'3.2a3+'
p1477
tp1478
a(S'65418'
p1479
I168627308
S'3.2a3+'
p1480
tp1481
a(S'65425'
p1482
I168627308
S'3.2a3+'
p1483
tp1484
a(S'66104'
p1485
I168627308
S'3.2a3+'
p1486
tp1487
a(S'66556'
p1488
I168627308
S'3.2a4+'
p1489
tp1490
a(S'66599'
p1491
I168627308
S'3.2a4+'
p1492
tp1493
a(S'66650'
p1494
I168627308
S'3.2a4+'
p1495
tp1496
a(S'66664'
p1497
I168627308
S'3.2a4+'
p1498
tp1499
a(S'68107'
p1500
I168627308
S'3.3a0'
p1501
tp1502
a(S'68110'
p1503
I168627308
S'3.3a0'
p1504
tp1505
a(S'68229'
p1506
I168627308
S'3.3a0'
p1507
tp1508
a(S'68255'
p1509
I168686289
S'2.6.6+'
p1510
tp1511
a(S'68256'
p1512
I168686339
S'2.7.1+'
p1513
tp1514
a(S'68257'
p1515
I168627308
S'3.2.1a0'
p1516
tp1517
a(S'68258'
p1518
I168627308
S'3.3a0'
p1519
tp1520
a(S'68708'
p1521
I168627308
S'3.3a0'
p1522
tp1523
a(S'68710'
p1524
I168627308
S'3.3a0'
p1525
tp1526
a(S'68711'
p1527
I168627308
S'3.3a0'
p1528
tp1529
a(S'68712'
p1530
I168627308
S'3.3a0'
p1531
tp1532
a(S'68713'
p1533
I168627308
S'3.3a0'
p1534
tp1535
a(S'68715'
p1536
I168627308
S'3.3a0'
p1537
tp1538
a(S'68716'
p1539
I168627308
S'3.3a0'
p1540
tp1541
a(S'68717'
p1542
I168627308
S'3.3a0'
p1543
tp1544
a(S'68718'
p1545
I168627308
S'3.3a0'
p1546
tp1547
a(S'68719'
p1548
I168627308
S'3.3a0'
p1549
tp1550
a(S'68720'
p1551
I168627308
S'3.3a0'
p1552
tp1553
a(S'68721'
p1554
I168627308
S'3.3a0'
p1555
tp1556
a(S'68722'
p1557
I168627308
S'3.3a0'
p1558
tp1559
a(S'68723'
p1560
I168627308
S'3.3a0'
p1561
tp1562
a(S'68724'
p1563
I168627308
S'3.3a0'
p1564
tp1565
a(S'68725'
p1566
I168627308
S'3.3a0'
p1567
tp1568
a(S'68726'
p1569
I168627308
S'3.3a0'
p1570
tp1571
a(S'68727'
p1572
I168627308
S'3.3a0'
p1573
tp1574
a(S'68728'
p1575
I168627308
S'3.3a0'
p1576
tp1577
a(S'68729'
p1578
I168627308
S'3.3a0'
p1579
tp1580
a(S'68730'
p1581
I168627308
S'3.3a0'
p1582
tp1583
a(S'68731'
p1584
I168627308
S'3.3a0'
p1585
tp1586
a(S'68732'
p1587
I168627308
S'3.3a0'
p1588
tp1589
a(S'68733'
p1590
I168627308
S'3.3a0'
p1591
tp1592
a(S'68734'
p1593
I168627308
S'3.3a0'
p1594
tp1595
a(S'68735'
p1596
I168627308
S'3.3a0'
p1597
tp1598
a(S'68736'
p1599
I168627308
S'3.3a0'
p1600
tp1601
a(S'68737'
p1602
I168627308
S'3.3a0'
p1603
tp1604
a(S'68738'
p1605
I168627308
S'3.3a0'
p1606
tp1607
a(S'68739'
p1608
I168627308
S'3.3a0'
p1609
tp1610
a(S'68741'
p1611
I168627308
S'3.3a0'
p1612
tp1613
a(S'68742'
p1614
I168627308
S'3.3a0'
p1615
tp1616
a(S'68768'
p1617
I168627308
S'3.3a0'
p1618
tp1619
a(S'68823'
p1620
I168627308
S'3.3a0'
p1621
tp1622
a(S'68826'
p1623
I168627308
S'3.3a0'
p1624
tp1625
a(S'68887'
p1626
I168627308
S'3.3a0'
p1627
tp1628
a(S'69148'
p1629
I168627308
S'3.3a0'
p1630
tp1631
a(S'69463'
p1632
I168627308
S'3.3a0'
p1633
tp1634
a(S'70374'
p1635
I168627308
S'3.3a0'
p1636
tp1637
a(S'70396'
p1638
I168627308
S'3.3a0'
p1639
tp1640
a(S'70631'
p1641
I168627308
S'3.3a0'
p1642
tp1643
a(S'70894'
p1644
I168627318
S'3.3a0'
p1645
tp1646
a(S'70900'
p1647
I168627318
S'3.3a0'
p1648
tp1649
a(S'70901'
p1650
I168627318
S'3.3a0'
p1651
tp1652
a(S'72169'
p1653
I168627308
S'3.2.1+'
p1654
tp1655
a(S'72170'
p1656
I168627318
S'3.3.0a0'
p1657
tp1658
a(S'72171'
p1659
I168686339
S'2.7.2+'
p1660
tp1661
a.