(lp0
(I487
I9737364
S'?'
p1
tp2
a(I497
I9737364
g1
tp3
a(I510
I9737364
g1
tp4
a(I609
I9737364
g1
tp5
a(I630
I9737364
g1
tp6
a(I675
I9737364
g1
tp7
a(I727
I9737364
g1
tp8
a(I795
I9737364
g1
tp9
a(I926
I9737364
g1
tp10
a(I1198
I9737364
g1
tp11
a(I1257
I10075690
g1
tp12
a(I1262
I10075706
g1
tp13
a(I1270
I10075706
g1
tp14
a(I1288
I10066177
g1
tp15
a(I1289
I10066177
g1
tp16
a(I1293
I10066177
g1
tp17
a(I1351
I10066177
g1
tp18
a(I1353
I10066177
g1
tp19
a(I1360
I10066178
g1
tp20
a(I1361
I10066178
g1
tp21
a(I1362
I10066178
g1
tp22
a(I1410
I10066178
g1
tp23
a(I1415
I10066178
g1
tp24
a(I1844
I10066179
S'1.1--'
p25
tp26
a(I1877
I10066179
S'1.1--'
p27
tp28
a(I1886
I10066179
S'1.1--'
p29
tp30
a(I1905
I10066179
S'1.1--'
p31
tp32
a(I2040
I10066179
S'1.1.1'
p33
tp34
a(I2052
I10066179
S'1.2--'
p35
tp36
a(I2062
I10066179
S'1.2--'
p37
tp38
a(I2098
I10066179
S'1.2--'
p39
tp40
a(I2128
I10066179
S'1.2--'
p41
tp42
a(I2198
I10066179
S'1.2-beta-2'
p43
tp44
a(I2244
I10066179
S'1.2-beta-2'
p45
tp46
a(I2270
I10066179
S'1.2-beta-2'
p47
tp48
a(I2294
I10066179
S'1.2-beta-2'
p49
tp50
a(I2349
I10066179
S'1.2-beta-3'
p51
tp52
a(I2395
I10066179
S'1.2-beta-3'
p53
tp54
a(I2724
I10066179
S'1.2'
p55
tp56
a(I2749
I10066179
S'1.2'
p57
tp58
a(I2812
I168640807
S'1.2'
p59
tp60
a(I2844
I168636041
S'1.3b1'
p61
tp62
a(I2865
I168636041
S'1.3b1'
p63
tp64
a(I2868
I168636041
S'1.3b1'
p65
tp66
a(I2891
I168636041
S'1.3b1'
p67
tp68
a(I3139
I168636041
S'1.3b3'
p69
tp70
a(I3409
I168636041
S'1.3'
p71
tp72
a(I3492
I168636041
S'1.3'
p73
tp74
a(I3557
I168636041
S'1.3'
p75
tp76
a(I3590
I168636041
S'1.3'
p77
tp78
a(I3683
I168636041
S'1.3'
p79
tp80
a(I3696
I168636041
S'1.3'
p81
tp82
a(I3738
I168636041
S'1.4b1'
p83
tp84
a(I3768
I168626023
S'1.4b1'
p85
tp86
a(I3839
I168630020
S'1.4b1'
p87
tp88
a(I3964
I168630020
S'1.4b2'
p89
tp90
a(I4111
I168630020
S'1.4b2'
p91
tp92
a(I4503
I168630020
S'1.4'
p93
tp94
a(I4596
I168630020
S'1.4'
p95
tp96
a(I4993
I168644245
S'1.4'
p97
tp98
a(I5043
I168644249
S'1.5a1'
p99
tp100
a(I5180
I168644249
S'1.5a1'
p101
tp102
a(I5317
I168644249
S'1.5a1'
p103
tp104
a(I5373
I168644249
S'1.5a1'
p105
tp106
a(I5375
I168644249
S'1.5a1'
p107
tp108
a(I5438
I168644249
S'1.5a1'
p109
tp110
a(I5511
I168644249
S'1.5a1'
p111
tp112
a(I5758
I168644249
S'1.5a2'
p113
tp114
a(I5894
I168644249
S'1.5a3'
p115
tp116
a(I5926
I168644249
S'1.5a3'
p117
tp118
a(I5938
I168644249
S'1.5a3'
p119
tp120
a(I5980
I168644249
S'1.5a3'
p121
tp122
a(I6028
I168644249
S'1.5a3'
p123
tp124
a(I6055
I168644249
S'1.5a3'
p125
tp126
a(I6243
I168644249
S'1.5a3'
p127
tp128
a(I6249
I168644249
S'1.5a3'
p129
tp130
a(I6250
I168644249
S'1.5a3'
p131
tp132
a(I6252
I168644249
S'1.5a3'
p133
tp134
a(I6256
I168644249
S'1.5a3'
p135
tp136
a(I6285
I168644249
S'1.5a4'
p137
tp138
a(I6299
I168644249
S'1.5a4'
p139
tp140
a(I6304
I168644249
S'1.5a4'
p141
tp142
a(I6305
I168644249
S'1.5a4'
p143
tp144
a(I6375
I168644249
S'1.5a4'
p145
tp146
a(I6454
I168644249
S'1.5a4'
p147
tp148
a(I6541
I168644249
S'1.5a4'
p149
tp150
a(I6542
I168644249
S'1.5a4'
p151
tp152
a(I6762
I168644249
S'1.5b1'
p153
tp154
a(I6907
I168644249
S'1.5b2'
p155
tp156
a(I7111
I168644249
S'1.5'
p157
tp158
a(I7202
I168644249
S'1.5'
p159
tp160
a(I7232
I168644249
S'1.5'
p161
tp162
a(I7290
I168644249
S'1.5'
p163
tp164
a(I7305
I168644249
S'1.5'
p165
tp166
a(I7367
I168644249
S'1.5'
p167
tp168
a(I7403
I168644249
S'1.5'
p169
tp170
a(I7533
I168644249
S'1.5'
p171
tp172
a(I7535
I168644249
S'1.5'
p173
tp174
a(I7552
I168644249
S'1.5'
p175
tp176
a(I7979
I168644249
S'1.5.1'
p177
tp178
a(I7987
I168644249
S'1.5.1'
p179
tp180
a(I8012
I168644249
S'1.5.1'
p181
tp182
a(I8330
I168644249
S'1.5.1'
p183
tp184
a(I8374
I168644249
S'1.5.1'
p185
tp186
a(I8544
I168644249
S'1.5.1'
p187
tp188
a(I8613
I168644249
S'1.5.1'
p189
tp190
a(I8822
I168644249
S'1.5.1'
p191
tp192
a(I8845
I168644249
S'1.5.2a1'
p193
tp194
a(I8934
I168644249
S'1.5.2a1'
p195
tp196
a(I9050
I168644249
S'1.5.2a1'
p197
tp198
a(I9096
I168644249
S'1.5.2a1'
p199
tp200
a(I9187
I168644249
S'1.5.2a1'
p201
tp202
a(I9203
I168644249
S'1.5.2a1'
p203
tp204
a(I9329
I168644249
S'1.5.2a2'
p205
tp206
a(I9431
I168644249
S'1.5.2a2'
p207
tp208
a(I9679
I168644249
S'1.5.2b1'
p209
tp210
a(I9680
I168644249
S'1.5.2b1'
p211
tp212
a(I9971
I168644249
S'1.5.2b2'
p213
tp214
a(I10530
I168644249
S'1.5.2b2+'
p215
tp216
a(I11602
I168644249
S'1.5.2+'
p217
tp218
a(I11618
I168644249
S'1.5.2+'
p219
tp220
a(I11882
I168644249
S'1.5.2+'
p221
tp222
a(I12476
I168644249
S'1.6a2'
p223
tp224
a(I12531
I168674556
S'1.6a2'
p225
tp226
a(I12536
I168674556
S'1.6a2'
p227
tp228
a(I12543
I168674556
S'1.6a2'
p229
tp230
a(I12576
I168674556
S'1.6a2'
p231
tp232
a(I13181
I168674556
S'2.0b1'
p233
tp234
a(I13226
I168674556
S'2.0b1'
p235
tp236
a(I13255
I168674556
S'2.0b1'
p237
tp238
a(I13256
I168674556
S'2.0b1'
p239
tp240
a(I13266
I168674556
S'2.0b1'
p241
tp242
a(I13447
I168674556
S'2.0b1'
p243
tp244
a(I13552
I168674556
S'2.0b1'
p245
tp246
a(I13658
I168674843
S'2.0b1'
p247
tp248
a(I13663
I168674843
S'2.0b1'
p249
tp250
a(I13670
I168674556
S'2.0b1'
p251
tp252
a(I13930
I168674939
S'2.0b1'
p253
tp254
a(I14038
I168674943
S'2.0b1'
p255
tp256
a(I14103
I168674949
S'2.0b1'
p257
tp258
a(I14163
I168674950
S'2.0b1'
p259
tp260
a(I14232
I168674951
S'2.0b1'
p261
tp262
a(I14375
I168674951
S'2.0b1'
p263
tp264
a(I14708
I168674951
S'2.0b1'
p265
tp266
a(I14921
I168674951
S'2.0b2'
p267
tp268
a(I14991
I168674951
S'2.0b2'
p269
tp270
a(I15401
I168674951
S'2.0'
p271
tp272
a(I15802
I168674951
S'2.0'
p273
tp274
a(I15978
I168674951
S'2.1a1'
p275
tp276
a(I16257
I168684252
S'2.1a1'
p277
tp278
a(I16311
I168684252
S'2.1a1'
p279
tp280
a(I16423
I168684252
S'2.1a1'
p281
tp282
a(I16433
I168684330
S'2.1a2'
p283
tp284
a(I16534
I168684330
S'2.1a2'
p285
tp286
a(I16712
I168684330
S'2.1a2'
p287
tp288
a(I16828
I168684330
S'2.1a2'
p289
tp290
a(I16829
I168684330
S'2.1a2'
p291
tp292
a(I16830
I168684330
S'2.1a2'
p293
tp294
a(I16880
I168684330
S'2.1a2'
p295
tp296
a(I16881
I168684330
S'2.1a2'
p297
tp298
a(I16893
I168684330
S'2.1a2'
p299
tp300
a(I16896
I168684330
S'2.1a2'
p301
tp302
a(I16902
I168684330
S'2.1b1'
p303
tp304
a(I16932
I168684330
S'2.1b1'
p305
tp306
a(I16947
I168684330
S'2.1b1'
p307
tp308
a(I16986
I168684330
S'2.1b1'
p309
tp310
a(I17090
I168684330
S'2.1b2'
p311
tp312
a(I17264
I168674951
S'2.0'
p313
tp314
a(I17502
I168684330
S'2.1c1'
p315
tp316
a(I17597
I168684548
S'2.2a0'
p317
tp318
a(I17642
I168684548
S'2.2a0'
p319
tp320
a(I17945
I168684330
S'2.1.1a1'
p321
tp322
a(I18388
I168684548
S'2.2a0'
p323
tp324
a(I18470
I168684330
S'2.1.1c1'
p325
tp326
a(I18803
I168684548
S'2.2a0'
p327
tp328
a(I18808
I168684548
S'2.2a0'
p329
tp330
a(I18933
I168684845
S'2.2a1'
p331
tp332
a(I18992
I168684845
S'2.2a1'
p333
tp334
a(I19061
I168684845
S'2.2a1'
p335
tp336
a(I19063
I168684845
S'2.2a1'
p337
tp338
a(I19238
I168684845
S'2.2a1'
p339
tp340
a(I19596
I168684845
S'2.2a2+'
p341
tp342
a(I20249
I168684845
S'2.2a4+'
p343
tp344
a(I20527
I168684845
S'2.2a4+'
p345
tp346
a(I20654
I168684845
S'2.2b1+'
p347
tp348
a(I20671
I168684845
S'2.2b1+'
p349
tp350
a(I20768
I168684845
S'2.2b1+'
p351
tp352
a(I21010
I168684845
S'2.2b2+'
p353
tp354
a(I21712
I168684845
S'2.2+'
p355
tp356
a(I21886
I168686129
S'2.3a0'
p357
tp358
a(I22054
I168686129
S'2.3a0'
p359
tp360
a(I22651
I168686129
S'2.3a0'
p361
tp362
a(I22705
I168686129
S'2.3a0'
p363
tp364
a(I22866
I168686129
S'2.3a0'
p365
tp366
a(I22918
I168686129
S'2.3a0'
p367
tp368
a(I22957
I168686129
S'2.3a0'
p369
tp370
a(I23029
I168686129
S'2.3a0'
p371
tp372
a(I23554
I168686129
S'2.3a0'
p373
tp374
a(I23585
I168686129
S'2.3a0'
p375
tp376
a(I23586
I168686129
S'2.3a0'
p377
tp378
a(I23623
I168684845
S'2.2.1'
p379
tp380
a(I23624
I168684330
S'2.1.3'
p381
tp382
a(I23832
I168686129
S'2.3a0'
p383
tp384
a(I23851
I168686139
S'2.3a0'
p385
tp386
a(I23879
I168686139
S'2.3a0'
p387
tp388
a(I24071
I168686139
S'2.3a0'
p389
tp390
a(I24844
I168686149
S'2.3a0'
p391
tp392
a(I25085
I168686139
S'2.3a0'
p393
tp394
a(I26461
I168686139
S'2.3a0'
p395
tp396
a(I26550
I168686139
S'2.3a0'
p397
tp398
a(I26643
I168686139
S'2.3a0'
p399
tp400
a(I26796
I168686139
S'2.3a0'
p401
tp402
a(I26885
I168686139
S'2.3a0'
p403
tp404
a(I27357
I168686139
S'2.3a1'
p405
tp406
a(I27852
I168686139
S'2.3a1'
p407
tp408
a(I27853
I168686139
S'2.3a1'
p409
tp410
a(I27867
I168684845
S'2.2.2'
p411
tp412
a(I27917
I168686139
S'2.3a1'
p413
tp414
a(I28392
I168686139
S'2.3a2+'
p415
tp416
a(I28394
I168684845
S'2.2.2'
p417
tp418
a(I29501
I168686139
S'2.3b1+'
p419
tp420
a(I29812
I168686139
S'2.3b2+'
p421
tp422
a(I30311
I168686139
S'2.4a0'
p423
tp424
a(I30722
I168686139
S'2.4a0'
p425
tp426
a(I30723
I168686139
S'2.3.2+'
p427
tp428
a(I30979
I168686139
S'2.4a0'
p429
tp430
a(I31320
I168686139
S'2.4a0'
p431
tp432
a(I31778
I168686139
S'2.4a0'
p433
tp434
a(I31779
I168686139
S'2.3.3'
p435
tp436
a(I31797
I168686139
S'2.4a0'
p437
tp438
a(I31824
I168686139
S'2.4a0'
p439
tp440
a(I31851
I168686159
S'2.4a0'
p441
tp442
a(I32156
I168686159
S'2.4a0'
p443
tp444
a(I32293
I168686139
S'2.3.4'
p445
tp446
a(I32294
I168686159
S'2.4a0'
p447
tp448
a(I32422
I168686169
S'2.4a0'
p449
tp450
a(I32878
I168686169
S'2.4a1+'
p451
tp452
a(I32879
I168686169
S'2.4a1+'
p453
tp454
a(I32882
I168686169
S'2.4a1+'
p455
tp456
a(I33248
I168686179
S'2.4a2'
p457
tp458
a(I33539
I168686189
S'2.4a3'
p459
tp460
a(I33542
I168686189
S'2.4a3'
p461
tp462
a(I33543
I168686139
S'2.3.5a0'
p463
tp464
a(I33680
I168686189
S'2.4a3'
p465
tp466
a(I34961
I168686189
S'2.5a0'
p467
tp468
a(I35008
I168686199
S'2.5a0'
p469
tp470
a(I35542
I168686199
S'2.5a0'
p471
tp472
a(I35543
I168686189
S'2.4.1+'
p473
tp474
a(I35550
I168686199
S'2.5a0'
p475
tp476
a(I35551
I168686189
S'2.4.1+'
p477
tp478
a(I35678
I168686199
S'2.5a0'
p479
tp480
a(I35679
I168686189
S'2.4.2'
p481
tp482
a(I35742
I168686199
S'2.5a0'
p483
tp484
a(I35757
I168686209
S'2.5a0'
p485
tp486
a(I35999
I168686209
S'2.5a0'
p487
tp488
a(I36065
I168686209
S'2.5a0'
p489
tp490
a(I36324
I168686209
S'2.5a0'
p491
tp492
a(I36501
I168686209
S'2.5a0'
p493
tp494
a(I36695
I168686219
S'2.5a0'
p495
tp496
a(I36712
I168686220
S'2.5a0'
p497
tp498
a(I36866
I168686220
S'2.5a0'
p499
tp500
a(I36926
I168686220
S'2.5a0'
p501
tp502
a(I36988
I168627128
S'3.0x'
p503
tp504
a(I37086
I168686220
S'2.5a0'
p505
tp506
a(I37209
I168686220
S'2.5a0'
p507
tp508
a(I37473
I168686220
S'2.5a1'
p509
tp510
a(I37488
I168686220
S'2.5a1'
p511
tp512
a(I37655
I168686220
S'2.5a1'
p513
tp514
a(I37879
I168627128
S'3.0x'
p515
tp516
a(I38018
I168686220
S'2.5a2'
p517
tp518
a(I38314
I168686220
S'2.5a2'
p519
tp520
a(I38388
I168686220
S'2.5a2'
p521
tp522
a(I38453
I168627128
S'3.0x'
p523
tp524
a(I38465
I168686220
S'2.5a2'
p525
tp526
a(I38471
I168686220
S'2.5a2'
p527
tp528
a(I38669
I168627128
S'3.0x'
p529
tp530
a(I39008
I168686220
S'2.5b1'
p531
tp532
a(I39067
I168686220
S'2.5b2'
p533
tp534
a(I39070
I168686229
S'2.5b2'
p535
tp536
a(I39099
I168686229
S'2.5b2'
p537
tp538
a(I39129
I168686229
S'2.5b2'
p539
tp540
a(I39130
I168686229
S'2.5b2'
p541
tp542
a(I39253
I168686229
S'2.5b2'
p543
tp544
a(I39300
I168686239
S'2.5b2'
p545
tp546
a(I39363
I168686249
S'2.5b3'
p547
tp548
a(I39365
I168686249
S'2.5b3'
p549
tp550
a(I39442
I168627128
S'3.0x'
p551
tp552
a(I39468
I168686249
S'2.5b3'
p553
tp554
a(I39610
I168627128
S'3.0x'
p555
tp556
a(I39678
I168627138
S'3.0x'
p557
tp558
a(I39693
I168627148
S'3.0x'
p559
tp560
a(I39753
I168686259
S'2.6a0'
p561
tp562
a(I39777
I168686259
S'2.6a0'
p563
tp564
a(I39827
I168686259
S'2.6a0'
p565
tp566
a(I39893
I168686189
S'2.4.4c0'
p567
tp568
a(I39901
I168686259
S'2.6a0'
p569
tp570
a(I39962
I168686189
S'2.4.4c0'
p571
tp572
a(I39978
I168686259
S'2.6a0'
p573
tp574
a(I40007
I168686189
S'2.4.4c0'
p575
tp576
a(I40012
I168686189
S'2.4.4c0'
p577
tp578
a(I40116
I168686269
S'2.6a0'
p579
tp580
a(I40215
I168627158
S'3.0x'
p581
tp582
a(I40450
I168627158
S'3.0x'
p583
tp584
a(I40530
I168627168
S'3.0x'
p585
tp586
a(I40774
I168627178
S'3.0x'
p587
tp588
a(I41102
I168686269
S'2.6a0'
p589
tp590
a(I41128
I168686269
S'2.6a0'
p591
tp592
a(I41131
I168686259
S'2.5'
p593
tp594
a(I41139
I168686269
S'2.6a0'
p595
tp596
a(I41178
I168686269
S'2.6a0'
p597
tp598
a(I41179
I168686259
S'2.5'
p599
tp600
a(I41226
I168627188
S'3.0x'
p601
tp602
a(I41253
I168627188
S'3.0x'
p603
tp604
a(I41526
I168686269
S'2.6a0'
p605
tp606
a(I41554
I168627188
S'3.0x'
p607
tp608
a(I41558
I168627188
S'3.0x'
p609
tp610
a(I41573
I168686259
S'2.5.1'
p611
tp612
a(I41587
I168627188
S'3.0x'
p613
tp614
a(I41595
I168627188
S'3.0x'
p615
tp616
a(I41666
I168627188
S'3.0x'
p617
tp618
a(I41911
I168686269
S'2.6a0'
p619
tp620
a(I41969
I168627188
S'3.0x'
p621
tp622
a(I42013
I168627188
S'3.0x'
p623
tp624
a(I42057
I168627188
S'3.0x'
p625
tp626
a(I42071
I168627188
S'3.0x'
p627
tp628
a(I42333
I168686269
S'2.6a0'
p629
tp630
a(I42334
I168627188
S'3.0x'
p631
tp632
a(I42347
I168627188
S'3.0x'
p633
tp634
a(I42428
I168627188
S'3.0x'
p635
tp636
a(I42560
I168627188
S'3.0x'
p637
tp638
a(I42622
I168627188
S'3.0x'
p639
tp640
a(I42687
I168686269
S'2.6a0'
p641
tp642
a(I42688
I168686269
S'2.6a0'
p643
tp644
a(I42734
I168686269
S'2.6a0'
p645
tp646
a(I42736
I168686259
S'2.5.1'
p647
tp648
a(I42775
I168627188
S'3.0x'
p649
tp650
a(I42859
I168627188
S'3.0x'
p651
tp652
a(I42862
I168627188
S'3.0x'
p653
tp654
a(I42898
I168627188
S'3.0x'
p655
tp656
a(I43102
I168627188
S'3.0a1'
p657
tp658
a(I43107
I168627198
S'3.0a1'
p659
tp660
a(I43225
I168627198
S'3.0a1'
p661
tp662
a(I43569
I168627208
S'3.0a1'
p663
tp664
a(I43605
I168627208
S'3.0a1'
p665
tp666
a(I43608
I168627208
S'3.0a1+'
p667
tp668
a(I43632
I168627208
S'3.0a1+'
p669
tp670
a(I43712
I168627208
S'3.0a1+'
p671
tp672
a(I43762
I168627208
S'3.0a1+'
p673
tp674
a(I43777
I168627218
S'3.0a1+'
p675
tp676
a(I43789
I168627218
S'3.0a1+'
p677
tp678
a(I43790
I168627218
S'3.0a1+'
p679
tp680
a(I43791
I168686269
S'2.6a0'
p681
tp682
a(I43792
I168686269
S'2.6a0'
p683
tp684
a(I43895
I168686269
S'2.6a0'
p685
tp686
a(I43897
I168627218
S'3.0a1+'
p687
tp688
a(I44098
I168627218
S'3.0a1+'
p689
tp690
a(I44099
I168627218
S'3.0a1+'
p691
tp692
a(I44116
I168686269
S'2.6a0'
p693
tp694
a(I44134
I168627218
S'3.0a1+'
p695
tp696
a(I44142
I168627218
S'3.0a1+'
p697
tp698
a(I44334
I168686279
S'2.6a0'
p699
tp700
a(I44349
I168627228
S'3.0a2'
p701
tp702
a(I44439
I168686279
S'2.6a0'
p703
tp704
a(I44441
I168627228
S'3.0a2+'
p705
tp706
a(I44566
I168686279
S'2.6a0'
p707
tp708
a(I44567
I168627228
S'3.0a2+'
p709
tp710
a(I44569
I168686279
S'2.6a0'
p711
tp712
a(I44583
I168627230
S'3.0a2+'
p713
tp714
a(I44587
I168627230
S'3.0a2+'
p715
tp716
a(I44614
I168686279
S'2.6a0'
p717
tp718
a(I44617
I168627230
S'3.0a2+'
p719
tp720
a(I44634
I168627230
S'3.0a2+'
p721
tp722
a(I45059
I168686279
S'2.6a0'
p723
tp724
a(I45071
I168627230
S'3.0a2+'
p725
tp726
a(I45470
I168686279
S'2.6a0'
p727
tp728
a(I45471
I168627230
S'3.0a2+'
p729
tp730
a(I45492
I168686279
S'2.6a0'
p731
tp732
a(I45495
I168627230
S'3.0a2+'
p733
tp734
a(I45703
I168686289
S'2.6a1+'
p735
tp736
a(I45773
I168627238
S'3.0a3+'
p737
tp738
a(I46015
I168627238
S'3.0a3+'
p739
tp740
a(I46118
I168686289
S'2.6a1+'
p741
tp742
a(I46120
I168627238
S'3.0a3+'
p743
tp744
a(I46121
I168686289
S'2.6a1+'
p745
tp746
a(I46125
I168627238
S'3.0a3+'
p747
tp748
a(I46136
I168686289
S'2.6a1+'
p749
tp750
a(I46138
I168686289
S'2.6a1+'
p751
tp752
a(I46547
I168627238
S'3.0a4+'
p753
tp754
a(I46644
I168627238
S'3.0a4+'
p755
tp756
a(I47294
I168686289
S'2.6a3+'
p757
tp758
a(I47301
I168627238
S'3.0a5+'
p759
tp760
a(I47527
I168686289
S'2.6a3+'
p761
tp762
a(I47580
I168627238
S'3.0a5+'
p763
tp764
a(I47594
I168627258
S'3.0a5+'
p765
tp766
a(I47599
I168627258
S'3.0a5+'
p767
tp768
a(I47944
I168686289
S'2.6b1+'
p769
tp770
a(I48189
I168686289
S'2.6b2+'
p771
tp772
a(I48499
I168627258
S'3.0b1+'
p773
tp774
a(I48540
I168627258
S'3.0b2+'
p775
tp776
a(I48660
I168627258
S'3.0b2+'
p777
tp778
a(I48920
I168686289
S'2.6b3+'
p779
tp780
a(I48946
I168627258
S'3.0b3+'
p781
tp782
a(I49003
I168627258
S'3.0b3+'
p783
tp784
a(I49020
I168627258
S'3.0b3+'
p785
tp786
a(I49103
I168627258
S'3.0b3+'
p787
tp788
a(I49105
I168627258
S'3.0b3+'
p789
tp790
a(I49651
I168627258
S'3.0rc1+'
p791
tp792
a(I49708
I168627258
S'3.0rc2+'
p793
tp794
a(I50204
I168686299
S'2.7a0'
p795
tp796
a(I50211
I168627268
S'3.1a0'
p797
tp798
a(I50491
I168686299
S'2.7a0'
p799
tp800
a(I50492
I168627268
S'3.1a0'
p801
tp802
a(I50616
I168686299
S'2.7a0'
p803
tp804
a(I50618
I168686289
S'2.6.1+'
p805
tp806
a(I50619
I168627268
S'3.1a0'
p807
tp808
a(I50620
I168627258
S'3.0+'
p809
tp810
a(I50671
I168686299
S'2.7a0'
p811
tp812
a(I50786
I168686289
S'2.6.1+'
p813
tp814
a(I50991
I168627268
S'3.1a0'
p815
tp816
a(I50996
I168627268
S'3.1a0'
p817
tp818
a(I51192
I168627268
S'3.1a0'
p819
tp820
a(I51197
I168627258
S'3.0+'
p821
tp822
a(I51270
I168627268
S'3.1a0'
p823
tp824
a(I51271
I168627258
S'3.0+'
p825
tp826
a(I51853
I168627278
S'3.1a0'
p827
tp828
a(I51920
I168686309
S'2.7a0'
p829
tp830
a(I51996
I168627278
S'3.1a0'
p831
tp832
a(I51997
I168627258
S'3.0.1+'
p833
tp834
a(I52073
I168627278
S'3.1a1+'
p835
tp836
a(I52168
I168627278
S'3.1a1+'
p837
tp838
a(I52475
I168627258
S'3.0.1+'
p839
tp840
a(I52480
I168627278
S'3.1a1+'
p841
tp842
a(I52545
I168627278
S'3.1a1+'
p843
tp844
a(I52547
I168627278
S'3.1a1+'
p845
tp846
a(I52718
I168686309
S'2.7a0'
p847
tp848
a(I52720
I168686309
S'2.7a0'
p849
tp850
a(I52721
I168627278
S'3.1a1+'
p851
tp852
a(I54329
I168686319
S'2.7a0'
p853
tp854
a(I54889
I168627288
S'3.2a0'
p855
tp856
a(I55132
I168686319
S'2.7a0'
p857
tp858
a(I55141
I168686319
S'2.7a0'
p859
tp860
a(I55304
I168627288
S'3.2a0'
p861
tp862
a(I55330
I168686289
S'2.6.2+'
p863
tp864
a(I55331
I168627278
S'3.1.1a0'
p865
tp866
a(I55441
I168686319
S'2.7a0'
p867
tp868
a(I55504
I168627288
S'3.2a0'
p869
tp870
a(I55584
I168627278
S'3.1.0+'
p871
tp872
a(I56007
I168686319
S'2.7a0'
p873
tp874
a(I56008
I168686289
S'2.6.2+'
p875
tp876
a(I56381
I168627288
S'3.2a0'
p877
tp878
a(I56382
I168627278
S'3.1.1'
p879
tp880
a(I57629
I168627288
S'3.2a0'
p881
tp882
a(I58229
I168686329
S'2.7a2+'
p883
tp884
a(I58250
I168686339
S'2.7a2+'
p885
tp886
a(I59210
I168686339
S'2.7a3+'
p887
tp888
a(I59213
I168627288
S'3.2a0'
p889
tp890
a(I59226
I168686289
S'2.6.4+'
p891
tp892
a(I59235
I168627288
S'3.2a0'
p893
tp894
a(I59499
I168686339
S'2.7a4+'
p895
tp896
a(I59536
I168627288
S'3.2a0'
p897
tp898
a(I59538
I168627288
S'3.2a0'
p899
tp900
a(I59822
I168686289
S'2.6.5+'
p901
tp902
a(I59858
I168627278
S'3.1.2'
p903
tp904
a(I59865
I168627278
S'3.1.2'
p905
tp906
a(I60021
I168686339
S'2.7a4+'
p907
tp908
a(I60022
I168627288
S'3.2a0'
p909
tp910
a(I60648
I168627288
S'3.2a0'
p911
tp912
a(I61267
I168686339
S'2.7b1+'
p913
tp914
a(I61268
I168686339
S'2.7b1+'
p915
tp916
a(I61269
I168686339
S'2.7b1+'
p917
tp918
a(I61463
I168686339
S'2.7b2+'
p919
tp920
a(I61465
I168686289
S'2.6.5+'
p921
tp922
a(I61466
I168627288
S'3.2a0'
p923
tp924
a(I61467
I168627278
S'3.1.2'
p925
tp926
a(I61597
I168627288
S'3.2a0'
p927
tp928
a(I61773
I168686339
S'2.7b2+'
p929
tp930
a(I61774
I168686289
S'2.6.5+'
p931
tp932
a(I62385
I168627288
S'3.2a0'
p933
tp934
a(I62570
I168627288
S'3.2a0'
p935
tp936
a(I63857
I168627288
S'3.2a1+'
p937
tp938
a(I63945
I168627288
S'3.2a1+'
p939
tp940
a(I63985
I168627288
S'3.2a1+'
p941
tp942
a(I63999
I168627288
S'3.2a1+'
p943
tp944
a(I64003
I168627288
S'3.2a1+'
p945
tp946
a(I64085
I168627278
S'3.1.2'
p947
tp948
a(I64135
I168627288
S'3.2a1+'
p949
tp950
a(I64439
I168627298
S'3.2a1+'
p951
tp952
a(I64594
I168627298
S'3.2a2+'
p953
tp954
a(I64621
I168627308
S'3.2a2+'
p955
tp956
a(I64638
I168627308
S'3.2a2+'
p957
tp958
a(I64838
I168627308
S'3.2a2+'
p959
tp960
a(I65008
I168627308
S'3.2a2+'
p961
tp962
a(I65027
I168627308
S'3.2a2+'
p963
tp964
a(I65157
I168627308
S'3.2a2+'
p965
tp966
a(I65162
I168627308
S'3.2a2+'
p967
tp968
a(I65349
I168627308
S'3.2a3+'
p969
tp970
a(I65380
I168627308
S'3.2a3+'
p971
tp972
a(I65382
I168627308
S'3.2a3+'
p973
tp974
a(I65383
I168627308
S'3.2a3+'
p975
tp976
a(I65391
I168627308
S'3.2a3+'
p977
tp978
a(I65418
I168627308
S'3.2a3+'
p979
tp980
a(I65425
I168627308
S'3.2a3+'
p981
tp982
a(I66104
I168627308
S'3.2a3+'
p983
tp984
a(I66556
I168627308
S'3.2a4+'
p985
tp986
a(I66599
I168627308
S'3.2a4+'
p987
tp988
a(I66650
I168627308
S'3.2a4+'
p989
tp990
a(I66664
I168627308
S'3.2a4+'
p991
tp992
a(I68107
I168627308
S'3.3a0'
p993
tp994
a(I68110
I168627308
S'3.3a0'
p995
tp996
a(I68229
I168627308
S'3.3a0'
p997
tp998
a(I68255
I168686289
S'2.6.6+'
p999
tp1000
a(I68256
I168686339
S'2.7.1+'
p1001
tp1002
a(I68257
I168627308
S'3.2.1a0'
p1003
tp1004
a(I68258
I168627308
S'3.3a0'
p1005
tp1006
a(I68708
I168627308
S'3.3a0'
p1007
tp1008
a(I68710
I168627308
S'3.3a0'
p1009
tp1010
a(I68711
I168627308
S'3.3a0'
p1011
tp1012
a(I68712
I168627308
S'3.3a0'
p1013
tp1014
a(I68713
I168627308
S'3.3a0'
p1015
tp1016
a(I68715
I168627308
S'3.3a0'
p1017
tp1018
a(I68716
I168627308
S'3.3a0'
p1019
tp1020
a(I68717
I168627308
S'3.3a0'
p1021
tp1022
a(I68718
I168627308
S'3.3a0'
p1023
tp1024
a(I68719
I168627308
S'3.3a0'
p1025
tp1026
a(I68720
I168627308
S'3.3a0'
p1027
tp1028
a(I68721
I168627308
S'3.3a0'
p1029
tp1030
a(I68722
I168627308
S'3.3a0'
p1031
tp1032
a(I68723
I168627308
S'3.3a0'
p1033
tp1034
a(I68724
I168627308
S'3.3a0'
p1035
tp1036
a(I68725
I168627308
S'3.3a0'
p1037
tp1038
a(I68726
I168627308
S'3.3a0'
p1039
tp1040
a(I68727
I168627308
S'3.3a0'
p1041
tp1042
a(I68728
I168627308
S'3.3a0'
p1043
tp1044
a(I68729
I168627308
S'3.3a0'
p1045
tp1046
a(I68730
I168627308
S'3.3a0'
p1047
tp1048
a(I68731
I168627308
S'3.3a0'
p1049
tp1050
a(I68732
I168627308
S'3.3a0'
p1051
tp1052
a(I68733
I168627308
S'3.3a0'
p1053
tp1054
a(I68734
I168627308
S'3.3a0'
p1055
tp1056
a(I68735
I168627308
S'3.3a0'
p1057
tp1058
a(I68736
I168627308
S'3.3a0'
p1059
tp1060
a(I68737
I168627308
S'3.3a0'
p1061
tp1062
a(I68738
I168627308
S'3.3a0'
p1063
tp1064
a(I68739
I168627308
S'3.3a0'
p1065
tp1066
a(I68741
I168627308
S'3.3a0'
p1067
tp1068
a(I68742
I168627308
S'3.3a0'
p1069
tp1070
a(I68768
I168627308
S'3.3a0'
p1071
tp1072
a(I68823
I168627308
S'3.3a0'
p1073
tp1074
a(I68826
I168627308
S'3.3a0'
p1075
tp1076
a(I68887
I168627308
S'3.3a0'
p1077
tp1078
a(I69148
I168627308
S'3.3a0'
p1079
tp1080
a(I69463
I168627308
S'3.3a0'
p1081
tp1082
a(I70374
I168627308
S'3.3a0'
p1083
tp1084
a(I70396
I168627308
S'3.3a0'
p1085
tp1086
a(I70631
I168627308
S'3.3a0'
p1087
tp1088
a(I70894
I168627318
S'3.3a0'
p1089
tp1090
a(I70900
I168627318
S'3.3a0'
p1091
tp1092
a(I70901
I168627318
S'3.3a0'
p1093
tp1094
a(I72169
I168627308
S'3.2.1+'
p1095
tp1096
a(I72170
I168627318
S'3.3.0a0'
p1097
tp1098
a(I72171
I168686339
S'2.7.2+'
p1099
tp1100
a.